; Function Attrs: mustprogress uwtable
define internal noundef ptr @_ZN6icu_77L8_createCERKNS_13UnicodeStringENS_14Transliterator5TokenE(ptr noundef nonnull align 8 dereferenceable(64) %0, ptr readnone captures(none) %1) #1 personality ptr @__gxx_personality_v0 {
  %3 = tail call noundef ptr @_ZN6icu_777UMemorynwEm(i64 noundef 96) #13
  %4 = icmp eq ptr %3, null
  br i1 %4, label %6, label %5

5:                                                ; preds = %2
  invoke void @_ZN6icu_7722UnescapeTransliteratorC1ERKNS_13UnicodeStringEPKDs(ptr noundef nonnull align 8 dereferenceable(96) %3, ptr noundef nonnull align 8 dereferenceable(64) %0, ptr noundef nonnull @_ZN6icu_77L6SPEC_CE)
          to label %6 unwind label %7

6:                                                ; preds = %5, %2
  ret ptr %3

7:                                                ; preds = %5
  %8 = landingpad { ptr, i32 }
          cleanup
  tail call void @_ZN6icu_777UMemorydlEPv(ptr noundef nonnull %3) #13
  resume { ptr, i32 } %8
}